; Function Attrs: nounwind uwtable
define dso_local noalias noundef ptr @PyErr_SetFromErrnoWithFilename(ptr noundef %0, ptr noundef %1) local_unnamed_addr #0 {
  %.not = icmp eq ptr %1, null
  br i1 %.not, label %.thread, label %4

.thread:                                          ; preds = %2
  %3 = tail call ptr @PyErr_SetFromErrnoWithFilenameObjects(ptr noundef %0, ptr noundef null, ptr noundef null)
  br label %.critedge

4:                                                ; preds = %2
  %5 = tail call ptr @__errno_location() #19
  %6 = load i32, ptr %5, align 4, !tbaa !46
  %7 = tail call ptr @PyUnicode_DecodeFSDefault(ptr noundef nonnull %1) #17
  %.not11 = icmp eq ptr %7, null
  br i1 %.not11, label %.critedge, label %8

8:                                                ; preds = %4
  store i32 %6, ptr %5, align 4, !tbaa !46
  %9 = tail call ptr @PyErr_SetFromErrnoWithFilenameObjects(ptr noundef %0, ptr noundef nonnull %7, ptr noundef null)
  %10 = load i32, ptr %7, align 8, !tbaa !20
  %.not.i.i = icmp sgt i32 %10, -1
  br i1 %.not.i.i, label %11, label %.critedge

11:                                               ; preds = %8
  %12 = add nsw i32 %10, -1
  store i32 %12, ptr %7, align 8, !tbaa !20
  %13 = icmp eq i32 %12, 0
  br i1 %13, label %14, label %.critedge

14:                                               ; preds = %11
  tail call void @_Py_Dealloc(ptr noundef nonnull %7) #17
  br label %.critedge

.critedge:                                        ; preds = %14, %11, %8, %.thread, %4
  ret ptr null
}